; Function Attrs: mustprogress uwtable
define void @_ZNK8QuantLib8BetaRisk13newSimulationERKNS_4DateES3_(ptr dead_on_unwind noalias nocapture writable writeonly sret(%"class.boost::shared_ptr.0") align 8 %agg.result, ptr noundef nonnull align 8 dereferenceable(40) %this, ptr noundef nonnull align 8 dereferenceable(8) %start, ptr noundef nonnull align 8 dereferenceable(8) %end) unnamed_addr #0 align 2 personality ptr @__gxx_personality_v0 {
_ZN5boost10shared_ptrIN8QuantLib18BetaRiskSimulationEED2Ev.exit:
  %ref.tmp = alloca %"class.boost::shared_ptr.22", align 8
  call void @llvm.lifetime.start.p0(i64 16, ptr nonnull %ref.tmp) #21
  %maxLoss_ = getelementptr inbounds nuw i8, ptr %this, i64 8
  %lambda_ = getelementptr inbounds nuw i8, ptr %this, i64 16
  %alpha_ = getelementptr inbounds nuw i8, ptr %this, i64 24
  %beta_ = getelementptr inbounds nuw i8, ptr %this, i64 32
  call void @_ZN5boost11make_sharedIN8QuantLib18BetaRiskSimulationEJRKNS1_4DateES5_RKdS7_S7_S7_EEENS_6detail15sp_if_not_arrayIT_E4typeEDpOT0_(ptr dead_on_unwind nonnull writable sret(%"class.boost::shared_ptr.22") align 8 %ref.tmp, ptr noundef nonnull align 8 dereferenceable(8) %start, ptr noundef nonnull align 8 dereferenceable(8) %end, ptr noundef nonnull align 8 dereferenceable(8) %maxLoss_, ptr noundef nonnull align 8 dereferenceable(8) %lambda_, ptr noundef nonnull align 8 dereferenceable(8) %alpha_, ptr noundef nonnull align 8 dereferenceable(8) %beta_)
  %0 = load ptr, ptr %ref.tmp, align 8, !tbaa !114
  store ptr %0, ptr %agg.result, align 8, !tbaa !40
  %pn.i = getelementptr inbounds nuw i8, ptr %agg.result, i64 8
  %pn3.i = getelementptr inbounds nuw i8, ptr %ref.tmp, i64 8
  %1 = load ptr, ptr %pn3.i, align 8, !tbaa !13
  store ptr %1, ptr %pn.i, align 8, !tbaa !13
  call void @llvm.lifetime.end.p0(i64 16, ptr nonnull %ref.tmp) #21
  ret void
}